target datalayout = "e-m:e-p270:32:32-p271:32:32-p272:64:64-i64:64-i128:128-f80:128-n8:16:32:64-S128"
target triple = "x86_64-pc-linux-gnu"

%struct.rsa_st = type { i32, ptr, i32, ptr, ptr, ptr, ptr, ptr, ptr, ptr, ptr, ptr, ptr, %struct.rsa_pss_params_30_st, ptr, ptr, %struct.crypto_ex_data_st, %struct.CRYPTO_REF_COUNT, i32, ptr, ptr, ptr, ptr, ptr, ptr, i32 }
%struct.rsa_pss_params_30_st = type { i32, %struct.anon, i32, i32 }
%struct.anon = type { i32, i32 }
%struct.crypto_ex_data_st = type { ptr, ptr }
%struct.CRYPTO_REF_COUNT = type { i32 }

; Function Attrs: nounwind uwtable
define internal ptr @rsa_get_blinding(ptr noundef %0, ptr noundef %1, ptr noundef %2) #0 {
  %4 = alloca ptr, align 8
  %5 = alloca ptr, align 8
  %6 = alloca ptr, align 8
  %7 = alloca ptr, align 8
  %8 = alloca ptr, align 8
  %9 = alloca i32, align 4
  store ptr %0, ptr %5, align 8, !tbaa !12
  store ptr %1, ptr %6, align 8, !tbaa !66
  store ptr %2, ptr %7, align 8, !tbaa !14
  call void @llvm.lifetime.start.p0(i64 8, ptr %8) #6
  %10 = load ptr, ptr %5, align 8, !tbaa !12
  %11 = getelementptr inbounds nuw %struct.rsa_st, ptr %10, i32 0, i32 24
  %12 = load ptr, ptr %11, align 8, !tbaa !34
  %13 = call i32 @CRYPTO_THREAD_read_lock(ptr noundef %12)
  %14 = icmp ne i32 %13, 0
  br i1 %14, label %16, label %15

15:                                               ; preds = %3
  store ptr null, ptr %4, align 8
  store i32 1, ptr %9, align 4
  br label %97

16:                                               ; preds = %3
  %17 = load ptr, ptr %5, align 8, !tbaa !12
  %18 = getelementptr inbounds nuw %struct.rsa_st, ptr %17, i32 0, i32 22
  %19 = load ptr, ptr %18, align 8, !tbaa !68
  %20 = icmp eq ptr %19, null
  br i1 %20, label %21, label %44

21:                                               ; preds = %16
  %22 = load ptr, ptr %5, align 8, !tbaa !12
  %23 = getelementptr inbounds nuw %struct.rsa_st, ptr %22, i32 0, i32 24
  %24 = load ptr, ptr %23, align 8, !tbaa !34
  %25 = call i32 @CRYPTO_THREAD_unlock(ptr noundef %24)
  %26 = load ptr, ptr %5, align 8, !tbaa !12
  %27 = getelementptr inbounds nuw %struct.rsa_st, ptr %26, i32 0, i32 24
  %28 = load ptr, ptr %27, align 8, !tbaa !34
  %29 = call i32 @CRYPTO_THREAD_write_lock(ptr noundef %28)
  %30 = icmp ne i32 %29, 0
  br i1 %30, label %32, label %31

31:                                               ; preds = %21
  store ptr null, ptr %4, align 8
  store i32 1, ptr %9, align 4
  br label %97

32:                                               ; preds = %21
  %33 = load ptr, ptr %5, align 8, !tbaa !12
  %34 = getelementptr inbounds nuw %struct.rsa_st, ptr %33, i32 0, i32 22
  %35 = load ptr, ptr %34, align 8, !tbaa !68
  %36 = icmp eq ptr %35, null
  br i1 %36, label %37, label %43

37:                                               ; preds = %32
  %38 = load ptr, ptr %5, align 8, !tbaa !12
  %39 = load ptr, ptr %7, align 8, !tbaa !14
  %40 = call ptr @RSA_setup_blinding(ptr noundef %38, ptr noundef %39)
  %41 = load ptr, ptr %5, align 8, !tbaa !12
  %42 = getelementptr inbounds nuw %struct.rsa_st, ptr %41, i32 0, i32 22
  store ptr %40, ptr %42, align 8, !tbaa !68
  br label %43

43:                                               ; preds = %37, %32
  br label %44

44:                                               ; preds = %43, %16
  %45 = load ptr, ptr %5, align 8, !tbaa !12
  %46 = getelementptr inbounds nuw %struct.rsa_st, ptr %45, i32 0, i32 22
  %47 = load ptr, ptr %46, align 8, !tbaa !68
  store ptr %47, ptr %8, align 8, !tbaa !41
  %48 = load ptr, ptr %8, align 8, !tbaa !41
  %49 = icmp eq ptr %48, null
  br i1 %49, label %50, label %51

50:                                               ; preds = %44
  br label %91

51:                                               ; preds = %44
  %52 = load ptr, ptr %8, align 8, !tbaa !41
  %53 = call i32 @BN_BLINDING_is_current_thread(ptr noundef %52)
  %54 = icmp ne i32 %53, 0
  br i1 %54, label %55, label %57

55:                                               ; preds = %51
  %56 = load ptr, ptr %6, align 8, !tbaa !66
  store i32 1, ptr %56, align 4, !tbaa !8
  br label %90

57:                                               ; preds = %51
  %58 = load ptr, ptr %6, align 8, !tbaa !66
  store i32 0, ptr %58, align 4, !tbaa !8
  %59 = load ptr, ptr %5, align 8, !tbaa !12
  %60 = getelementptr inbounds nuw %struct.rsa_st, ptr %59, i32 0, i32 23
  %61 = load ptr, ptr %60, align 8, !tbaa !69
  %62 = icmp eq ptr %61, null
  br i1 %62, label %63, label %86

63:                                               ; preds = %57
  %64 = load ptr, ptr %5, align 8, !tbaa !12
  %65 = getelementptr inbounds nuw %struct.rsa_st, ptr %64, i32 0, i32 24
  %66 = load ptr, ptr %65, align 8, !tbaa !34
  %67 = call i32 @CRYPTO_THREAD_unlock(ptr noundef %66)
  %68 = load ptr, ptr %5, align 8, !tbaa !12
  %69 = getelementptr inbounds nuw %struct.rsa_st, ptr %68, i32 0, i32 24
  %70 = load ptr, ptr %69, align 8, !tbaa !34
  %71 = call i32 @CRYPTO_THREAD_write_lock(ptr noundef %70)
  %72 = icmp ne i32 %71, 0
  br i1 %72, label %74, label %73

73:                                               ; preds = %63
  store ptr null, ptr %4, align 8
  store i32 1, ptr %9, align 4
  br label %97

74:                                               ; preds = %63
  %75 = load ptr, ptr %5, align 8, !tbaa !12
  %76 = getelementptr inbounds nuw %struct.rsa_st, ptr %75, i32 0, i32 23
  %77 = load ptr, ptr %76, align 8, !tbaa !69
  %78 = icmp eq ptr %77, null
  br i1 %78, label %79, label %85

79:                                               ; preds = %74
  %80 = load ptr, ptr %5, align 8, !tbaa !12
  %81 = load ptr, ptr %7, align 8, !tbaa !14
  %82 = call ptr @RSA_setup_blinding(ptr noundef %80, ptr noundef %81)
  %83 = load ptr, ptr %5, align 8, !tbaa !12
  %84 = getelementptr inbounds nuw %struct.rsa_st, ptr %83, i32 0, i32 23
  store ptr %82, ptr %84, align 8, !tbaa !69
  br label %85

85:                                               ; preds = %79, %74
  br label %86

86:                                               ; preds = %85, %57
  %87 = load ptr, ptr %5, align 8, !tbaa !12
  %88 = getelementptr inbounds nuw %struct.rsa_st, ptr %87, i32 0, i32 23
  %89 = load ptr, ptr %88, align 8, !tbaa !69
  store ptr %89, ptr %8, align 8, !tbaa !41
  br label %90

90:                                               ; preds = %86, %55
  br label %91

91:                                               ; preds = %90, %50
  %92 = load ptr, ptr %5, align 8, !tbaa !12
  %93 = getelementptr inbounds nuw %struct.rsa_st, ptr %92, i32 0, i32 24
  %94 = load ptr, ptr %93, align 8, !tbaa !34
  %95 = call i32 @CRYPTO_THREAD_unlock(ptr noundef %94)
  %96 = load ptr, ptr %8, align 8, !tbaa !41
  store ptr %96, ptr %4, align 8
  store i32 1, ptr %9, align 4
  br label %97

97:                                               ; preds = %91, %73, %31, %15
  call void @llvm.lifetime.end.p0(i64 8, ptr %8) #6
  %98 = load ptr, ptr %4, align 8
  ret ptr %98
}