; Function Attrs: nounwind uwtable
define internal fastcc ptr @rsa_get_blinding(ptr noundef %0, ptr noundef nonnull writeonly captures(none) %1, ptr noundef nonnull %2) unnamed_addr #3 {
  %4 = getelementptr inbounds nuw i8, ptr %0, i64 208
  %5 = load ptr, ptr %4, align 8, !tbaa !26
  %6 = tail call i32 @CRYPTO_THREAD_read_lock(ptr noundef %5) #9
  %.not = icmp eq i32 %6, 0
  br i1 %.not, label %42, label %7

7:                                                ; preds = %3
  %8 = getelementptr inbounds nuw i8, ptr %0, i64 192
  %9 = load ptr, ptr %8, align 8, !tbaa !58
  %10 = icmp eq ptr %9, null
  br i1 %10, label %11, label %.thread

11:                                               ; preds = %7
  %12 = load ptr, ptr %4, align 8, !tbaa !26
  %13 = tail call i32 @CRYPTO_THREAD_unlock(ptr noundef %12) #9
  %14 = load ptr, ptr %4, align 8, !tbaa !26
  %15 = tail call i32 @CRYPTO_THREAD_write_lock(ptr noundef %14) #9
  %.not26 = icmp eq i32 %15, 0
  br i1 %.not26, label %42, label %16

16:                                               ; preds = %11
  %17 = load ptr, ptr %8, align 8, !tbaa !58
  %18 = icmp eq ptr %17, null
  br i1 %18, label %19, label %.thread

19:                                               ; preds = %16
  %20 = tail call ptr @RSA_setup_blinding(ptr noundef nonnull %0, ptr noundef nonnull %2) #9
  store ptr %20, ptr %8, align 8, !tbaa !58
  %21 = icmp eq ptr %20, null
  br i1 %21, label %39, label %.thread

.thread:                                          ; preds = %7, %16, %19
  %22 = phi ptr [ %20, %19 ], [ %9, %7 ], [ %17, %16 ]
  %23 = tail call i32 @BN_BLINDING_is_current_thread(ptr noundef nonnull %22) #9
  %.not27 = icmp eq i32 %23, 0
  br i1 %.not27, label %25, label %24

24:                                               ; preds = %.thread
  store i32 1, ptr %1, align 4, !tbaa !34
  br label %39

25:                                               ; preds = %.thread
  store i32 0, ptr %1, align 4, !tbaa !34
  %26 = getelementptr inbounds nuw i8, ptr %0, i64 200
  %27 = load ptr, ptr %26, align 8, !tbaa !59
  %28 = icmp eq ptr %27, null
  br i1 %28, label %29, label %39

29:                                               ; preds = %25
  %30 = load ptr, ptr %4, align 8, !tbaa !26
  %31 = tail call i32 @CRYPTO_THREAD_unlock(ptr noundef %30) #9
  %32 = load ptr, ptr %4, align 8, !tbaa !26
  %33 = tail call i32 @CRYPTO_THREAD_write_lock(ptr noundef %32) #9
  %.not28 = icmp eq i32 %33, 0
  br i1 %.not28, label %42, label %34

34:                                               ; preds = %29
  %35 = load ptr, ptr %26, align 8, !tbaa !59
  %36 = icmp eq ptr %35, null
  br i1 %36, label %37, label %39

37:                                               ; preds = %34
  %38 = tail call ptr @RSA_setup_blinding(ptr noundef nonnull %0, ptr noundef nonnull %2) #9
  store ptr %38, ptr %26, align 8, !tbaa !59
  br label %39

39:                                               ; preds = %25, %37, %34, %24, %19
  %.0 = phi ptr [ null, %19 ], [ %22, %24 ], [ %35, %34 ], [ %38, %37 ], [ %27, %25 ]
  %40 = load ptr, ptr %4, align 8, !tbaa !26
  %41 = tail call i32 @CRYPTO_THREAD_unlock(ptr noundef %40) #9
  br label %42

42:                                               ; preds = %29, %11, %3, %39
  %.024 = phi ptr [ %.0, %39 ], [ null, %3 ], [ null, %11 ], [ null, %29 ]
  ret ptr %.024
}